target datalayout = "e-m:e-p270:32:32-p271:32:32-p272:64:64-i64:64-i128:128-f80:128-n8:16:32:64-S128"
target triple = "x86_64-pc-linux-gnu"

%struct.ossl_ml_kem_key_st = type { ptr, ptr, ptr, ptr, ptr, ptr, ptr, ptr, ptr, ptr, ptr, ptr, ptr, i32, i32, [64 x i8], ptr }
%struct.ML_KEM_VINFO = type { ptr, i64, i64, i64, i64, i64, i64, i64, i32, i32, i32, i32, i32, i32 }

@.str.9 = private unnamed_addr constant [60 x i8] c"../openssl/providers/implementations/keymgmt/ml_kem_kmgmt.c\00", align 1
@__func__.ml_kem_pairwise_test = private unnamed_addr constant [21 x i8] c"ml_kem_pairwise_test\00", align 1
@.str.11 = private unnamed_addr constant [53 x i8] c"public part of %s private key fails to match private\00", align 1

; Function Attrs: nounwind uwtable
define internal i32 @ml_kem_pairwise_test(ptr noundef %0) #0 {
  %2 = alloca i32, align 4
  %3 = alloca ptr, align 8
  %4 = alloca [32 x i8], align 16
  %5 = alloca [32 x i8], align 16
  %6 = alloca ptr, align 8
  %7 = alloca ptr, align 8
  %8 = alloca i32, align 4
  %9 = alloca i32, align 4
  %10 = alloca i32, align 4
  store ptr %0, ptr %3, align 8, !tbaa !9
  call void @llvm.lifetime.start.p0(i64 32, ptr %4) #7
  call void @llvm.lifetime.start.p0(i64 32, ptr %5) #7
  call void @llvm.lifetime.start.p0(i64 8, ptr %6) #7
  store ptr null, ptr %6, align 8, !tbaa !24
  call void @llvm.lifetime.start.p0(i64 8, ptr %7) #7
  %11 = load ptr, ptr %3, align 8, !tbaa !9
  %12 = getelementptr inbounds nuw %struct.ossl_ml_kem_key_st, ptr %11, i32 0, i32 0
  %13 = load ptr, ptr %12, align 8, !tbaa !11
  store ptr %13, ptr %7, align 8, !tbaa !3
  call void @llvm.lifetime.start.p0(i64 4, ptr %8) #7
  store i32 0, ptr %8, align 4, !tbaa !25
  call void @llvm.lifetime.start.p0(i64 4, ptr %9) #7
  store i32 0, ptr %9, align 4, !tbaa !25
  %14 = load ptr, ptr %3, align 8, !tbaa !9
  %15 = getelementptr inbounds nuw %struct.ossl_ml_kem_key_st, ptr %14, i32 0, i32 10
  %16 = load ptr, ptr %15, align 8, !tbaa !34
  %17 = icmp ne ptr %16, null
  br i1 %17, label %18, label %23

18:                                               ; preds = %1
  %19 = load ptr, ptr %3, align 8, !tbaa !9
  %20 = getelementptr inbounds nuw %struct.ossl_ml_kem_key_st, ptr %19, i32 0, i32 8
  %21 = load ptr, ptr %20, align 8, !tbaa !23
  %22 = icmp ne ptr %21, null
  br i1 %22, label %24, label %23

23:                                               ; preds = %18, %1
  store i32 1, ptr %2, align 4
  store i32 1, ptr %10, align 4
  br label %71

24:                                               ; preds = %18
  %25 = load ptr, ptr %7, align 8, !tbaa !3
  %26 = getelementptr inbounds nuw %struct.ML_KEM_VINFO, ptr %25, i32 0, i32 5
  %27 = load i64, ptr %26, align 8, !tbaa !22
  %28 = call noalias ptr @CRYPTO_malloc(i64 noundef %27, ptr noundef @.str.9, i32 noundef 98)
  store ptr %28, ptr %6, align 8, !tbaa !24
  %29 = load ptr, ptr %6, align 8, !tbaa !24
  %30 = icmp eq ptr %29, null
  br i1 %30, label %31, label %32

31:                                               ; preds = %24
  br label %61

32:                                               ; preds = %24
  %33 = getelementptr inbounds [32 x i8], ptr %5, i64 0, i64 0
  call void @llvm.memset.p0.i64(ptr align 16 %33, i8 0, i64 32, i1 false)
  %34 = load ptr, ptr %6, align 8, !tbaa !24
  %35 = load ptr, ptr %7, align 8, !tbaa !3
  %36 = getelementptr inbounds nuw %struct.ML_KEM_VINFO, ptr %35, i32 0, i32 5
  %37 = load i64, ptr %36, align 8, !tbaa !22
  %38 = getelementptr inbounds [32 x i8], ptr %4, i64 0, i64 0
  %39 = load ptr, ptr %3, align 8, !tbaa !9
  %40 = call i32 @ossl_ml_kem_encap_rand(ptr noundef %34, i64 noundef %37, ptr noundef %38, i64 noundef 32, ptr noundef %39)
  store i32 %40, ptr %8, align 4, !tbaa !25
  %41 = load i32, ptr %8, align 4, !tbaa !25
  %42 = icmp ne i32 %41, 1
  br i1 %42, label %43, label %44

43:                                               ; preds = %32
  br label %61

44:                                               ; preds = %32
  %45 = getelementptr inbounds [32 x i8], ptr %5, i64 0, i64 0
  %46 = load ptr, ptr %6, align 8, !tbaa !24
  %47 = load ptr, ptr %7, align 8, !tbaa !3
  %48 = getelementptr inbounds nuw %struct.ML_KEM_VINFO, ptr %47, i32 0, i32 5
  %49 = load i64, ptr %48, align 8, !tbaa !22
  %50 = load ptr, ptr %3, align 8, !tbaa !9
  %51 = call i32 @ossl_ml_kem_decap(ptr noundef %45, i64 noundef 32, ptr noundef %46, i64 noundef %49, ptr noundef %50)
  store i32 %51, ptr %8, align 4, !tbaa !25
  %52 = load i32, ptr %8, align 4, !tbaa !25
  %53 = icmp ne i32 %52, 1
  br i1 %53, label %59, label %54

54:                                               ; preds = %44
  %55 = getelementptr inbounds [32 x i8], ptr %5, i64 0, i64 0
  %56 = getelementptr inbounds [32 x i8], ptr %4, i64 0, i64 0
  %57 = call i32 @memcmp(ptr noundef %55, ptr noundef %56, i64 noundef 32) #8
  %58 = icmp ne i32 %57, 0
  br i1 %58, label %59, label %60

59:                                               ; preds = %54, %44
  br label %61

60:                                               ; preds = %54
  store i32 1, ptr %9, align 4, !tbaa !25
  br label %61

61:                                               ; preds = %60, %59, %43, %31
  %62 = load i32, ptr %9, align 4, !tbaa !25
  %63 = icmp eq i32 %62, 0
  br i1 %63, label %64, label %68

64:                                               ; preds = %61
  call void @ERR_new()
  call void @ERR_set_debug(ptr noundef @.str.9, i32 noundef 138, ptr noundef @__func__.ml_kem_pairwise_test)
  %65 = load ptr, ptr %7, align 8, !tbaa !3
  %66 = getelementptr inbounds nuw %struct.ML_KEM_VINFO, ptr %65, i32 0, i32 0
  %67 = load ptr, ptr %66, align 8, !tbaa !48
  call void (i32, i32, ptr, ...) @ERR_set_error(i32 noundef 57, i32 noundef 158, ptr noundef @.str.11, ptr noundef %67)
  br label %68

68:                                               ; preds = %64, %61
  %69 = load ptr, ptr %6, align 8, !tbaa !24
  call void @CRYPTO_free(ptr noundef %69, ptr noundef @.str.9, i32 noundef 143)
  %70 = load i32, ptr %9, align 4, !tbaa !25
  store i32 %70, ptr %2, align 4
  store i32 1, ptr %10, align 4
  br label %71

71:                                               ; preds = %68, %23
  call void @llvm.lifetime.end.p0(i64 4, ptr %9) #7
  call void @llvm.lifetime.end.p0(i64 4, ptr %8) #7
  call void @llvm.lifetime.end.p0(i64 8, ptr %7) #7
  call void @llvm.lifetime.end.p0(i64 8, ptr %6) #7
  call void @llvm.lifetime.end.p0(i64 32, ptr %5) #7
  call void @llvm.lifetime.end.p0(i64 32, ptr %4) #7
  %72 = load i32, ptr %2, align 4
  ret i32 %72
}