; Function Attrs: nounwind uwtable
define internal fastcc range(i32 0, 2) i32 @ml_kem_pairwise_test(ptr noundef %0) unnamed_addr #0 {
  %2 = alloca [32 x i8], align 16
  %3 = alloca [32 x i8], align 16
  call void @llvm.lifetime.start.p0(i64 32, ptr nonnull %2) #7
  call void @llvm.lifetime.start.p0(i64 32, ptr nonnull %3) #7
  %4 = load ptr, ptr %0, align 8, !tbaa !14
  %5 = getelementptr inbounds nuw i8, ptr %0, i64 80
  %6 = load ptr, ptr %5, align 8, !tbaa !30
  %.not = icmp eq ptr %6, null
  br i1 %.not, label %24, label %7

7:                                                ; preds = %1
  %8 = getelementptr inbounds nuw i8, ptr %0, i64 64
  %9 = load ptr, ptr %8, align 8, !tbaa !20
  %.not19 = icmp eq ptr %9, null
  br i1 %.not19, label %24, label %10

10:                                               ; preds = %7
  %11 = getelementptr inbounds nuw i8, ptr %4, i64 40
  %12 = load i64, ptr %11, align 8, !tbaa !19
  %13 = tail call noalias ptr @CRYPTO_malloc(i64 noundef %12, ptr noundef nonnull @.str.9, i32 noundef 98) #7
  %14 = icmp eq ptr %13, null
  br i1 %14, label %.thread, label %15

15:                                               ; preds = %10
  call void @llvm.memset.p0.i64(ptr noundef nonnull align 16 dereferenceable(32) %3, i8 0, i64 32, i1 false)
  %16 = load i64, ptr %11, align 8, !tbaa !19
  %17 = call i32 @ossl_ml_kem_encap_rand(ptr noundef nonnull %13, i64 noundef %16, ptr noundef nonnull %2, i64 noundef 32, ptr noundef nonnull %0) #7
  %.not20 = icmp eq i32 %17, 1
  br i1 %.not20, label %18, label %.thread

18:                                               ; preds = %15
  %19 = load i64, ptr %11, align 8, !tbaa !19
  %20 = call i32 @ossl_ml_kem_decap(ptr noundef nonnull %3, i64 noundef 32, ptr noundef nonnull %13, i64 noundef %19, ptr noundef nonnull %0) #7
  %.not21 = icmp eq i32 %20, 1
  br i1 %.not21, label %21, label %.thread

21:                                               ; preds = %18
  %bcmp = call i32 @bcmp(ptr noundef nonnull dereferenceable(32) %3, ptr noundef nonnull dereferenceable(32) %2, i64 32)
  %.not22.not = icmp eq i32 %bcmp, 0
  br i1 %.not22.not, label %23, label %.thread

.thread:                                          ; preds = %18, %15, %10, %21
  call void @ERR_new() #7
  call void @ERR_set_debug(ptr noundef nonnull @.str.9, i32 noundef 138, ptr noundef nonnull @__func__.ml_kem_pairwise_test) #7
  %22 = load ptr, ptr %4, align 8, !tbaa !47
  call void (i32, i32, ptr, ...) @ERR_set_error(i32 noundef 57, i32 noundef 158, ptr noundef nonnull @.str.11, ptr noundef %22) #7
  br label %23

23:                                               ; preds = %.thread, %21
  %.025 = phi i32 [ 0, %.thread ], [ 1, %21 ]
  call void @CRYPTO_free(ptr noundef %13, ptr noundef nonnull @.str.9, i32 noundef 143) #7
  br label %24

24:                                               ; preds = %1, %7, %23
  %.017 = phi i32 [ %.025, %23 ], [ 1, %7 ], [ 1, %1 ]
  call void @llvm.lifetime.end.p0(i64 32, ptr nonnull %3) #7
  call void @llvm.lifetime.end.p0(i64 32, ptr nonnull %2) #7
  ret i32 %.017
}